target datalayout = "e-m:e-p270:32:32-p271:32:32-p272:64:64-i64:64-i128:128-f80:128-n8:16:32:64-S128"
target triple = "x86_64-pc-linux-gnu"

%struct.pmix_info_array = type { i64, ptr }

; Function Attrs: nounwind uwtable
define i32 @pmix20_bfrop_pack_array(ptr noundef %0, ptr noundef %1, ptr noundef %2, i32 noundef %3, i16 noundef zeroext %4) #0 {
  %6 = alloca i32, align 4
  %7 = alloca ptr, align 8
  %8 = alloca ptr, align 8
  %9 = alloca ptr, align 8
  %10 = alloca i32, align 4
  %11 = alloca i16, align 2
  %12 = alloca ptr, align 8
  %13 = alloca i32, align 4
  %14 = alloca i32, align 4
  %15 = alloca i32, align 4
  store ptr %0, ptr %7, align 8, !tbaa !11
  store ptr %1, ptr %8, align 8, !tbaa !3
  store ptr %2, ptr %9, align 8, !tbaa !3
  store i32 %3, ptr %10, align 4, !tbaa !7
  store i16 %4, ptr %11, align 2, !tbaa !9
  call void @llvm.lifetime.start.p0(i64 8, ptr %12) #9
  call void @llvm.lifetime.start.p0(i64 4, ptr %13) #9
  call void @llvm.lifetime.start.p0(i64 4, ptr %14) #9
  %16 = load ptr, ptr %9, align 8, !tbaa !3
  store ptr %16, ptr %12, align 8, !tbaa !135
  store i32 0, ptr %13, align 4, !tbaa !7
  br label %17

17:                                               ; preds = %63, %5
  %18 = load i32, ptr %13, align 4, !tbaa !7
  %19 = load i32, ptr %10, align 4, !tbaa !7
  %20 = icmp slt i32 %18, %19
  br i1 %20, label %21, label %66

21:                                               ; preds = %17
  %22 = load ptr, ptr %7, align 8, !tbaa !11
  %23 = load ptr, ptr %8, align 8, !tbaa !3
  %24 = load ptr, ptr %12, align 8, !tbaa !135
  %25 = load i32, ptr %13, align 4, !tbaa !7
  %26 = sext i32 %25 to i64
  %27 = getelementptr inbounds %struct.pmix_info_array, ptr %24, i64 %26
  %28 = getelementptr inbounds nuw %struct.pmix_info_array, ptr %27, i32 0, i32 0
  %29 = call i32 @pmix_bfrops_base_pack_sizet(ptr noundef %22, ptr noundef %23, ptr noundef %28, i32 noundef 1, i16 noundef zeroext 4)
  store i32 %29, ptr %14, align 4, !tbaa !7
  %30 = icmp ne i32 0, %29
  br i1 %30, label %31, label %33

31:                                               ; preds = %21
  %32 = load i32, ptr %14, align 4, !tbaa !7
  store i32 %32, ptr %6, align 4
  store i32 1, ptr %15, align 4
  br label %67

33:                                               ; preds = %21
  %34 = load ptr, ptr %12, align 8, !tbaa !135
  %35 = load i32, ptr %13, align 4, !tbaa !7
  %36 = sext i32 %35 to i64
  %37 = getelementptr inbounds %struct.pmix_info_array, ptr %34, i64 %36
  %38 = getelementptr inbounds nuw %struct.pmix_info_array, ptr %37, i32 0, i32 0
  %39 = load i64, ptr %38, align 8, !tbaa !137
  %40 = icmp ult i64 0, %39
  br i1 %40, label %41, label %62

41:                                               ; preds = %33
  %42 = load ptr, ptr %7, align 8, !tbaa !11
  %43 = load ptr, ptr %8, align 8, !tbaa !3
  %44 = load ptr, ptr %12, align 8, !tbaa !135
  %45 = load i32, ptr %13, align 4, !tbaa !7
  %46 = sext i32 %45 to i64
  %47 = getelementptr inbounds %struct.pmix_info_array, ptr %44, i64 %46
  %48 = getelementptr inbounds nuw %struct.pmix_info_array, ptr %47, i32 0, i32 1
  %49 = load ptr, ptr %48, align 8, !tbaa !139
  %50 = load ptr, ptr %12, align 8, !tbaa !135
  %51 = load i32, ptr %13, align 4, !tbaa !7
  %52 = sext i32 %51 to i64
  %53 = getelementptr inbounds %struct.pmix_info_array, ptr %50, i64 %52
  %54 = getelementptr inbounds nuw %struct.pmix_info_array, ptr %53, i32 0, i32 0
  %55 = load i64, ptr %54, align 8, !tbaa !137
  %56 = trunc i64 %55 to i32
  %57 = call i32 @pmix_bfrops_base_pack_info(ptr noundef %42, ptr noundef %43, ptr noundef %49, i32 noundef %56, i16 noundef zeroext 24)
  store i32 %57, ptr %14, align 4, !tbaa !7
  %58 = icmp ne i32 0, %57
  br i1 %58, label %59, label %61

59:                                               ; preds = %41
  %60 = load i32, ptr %14, align 4, !tbaa !7
  store i32 %60, ptr %6, align 4
  store i32 1, ptr %15, align 4
  br label %67

61:                                               ; preds = %41
  br label %62

62:                                               ; preds = %61, %33
  br label %63

63:                                               ; preds = %62
  %64 = load i32, ptr %13, align 4, !tbaa !7
  %65 = add nsw i32 %64, 1
  store i32 %65, ptr %13, align 4, !tbaa !7
  br label %17, !llvm.loop !140

66:                                               ; preds = %17
  store i32 0, ptr %6, align 4
  store i32 1, ptr %15, align 4
  br label %67

67:                                               ; preds = %66, %59, %31
  call void @llvm.lifetime.end.p0(i64 4, ptr %14) #9
  call void @llvm.lifetime.end.p0(i64 4, ptr %13) #9
  call void @llvm.lifetime.end.p0(i64 8, ptr %12) #9
  %68 = load i32, ptr %6, align 4
  ret i32 %68
}