; Function Attrs: nounwind uwtable
define i32 @pmix20_bfrop_pack_array(ptr noundef %0, ptr noundef %1, ptr noundef %2, i32 noundef %3, i16 noundef zeroext %4) local_unnamed_addr #0 {
  %6 = icmp sgt i32 %3, 0
  br i1 %6, label %.lr.ph.preheader, label %._crit_edge

.lr.ph.preheader:                                 ; preds = %5
  %wide.trip.count = zext nneg i32 %3 to i64
  br label %.lr.ph

.lr.ph:                                           ; preds = %.lr.ph.preheader, %16
  %indvars.iv = phi i64 [ 0, %.lr.ph.preheader ], [ %indvars.iv.next, %16 ]
  %7 = getelementptr inbounds nuw %struct.pmix_info_array, ptr %2, i64 %indvars.iv
  %8 = tail call i32 @pmix_bfrops_base_pack_sizet(ptr noundef %0, ptr noundef %1, ptr noundef %7, i32 noundef 1, i16 noundef zeroext 4) #8
  %.not = icmp eq i32 %8, 0
  br i1 %.not, label %9, label %._crit_edge

9:                                                ; preds = %.lr.ph
  %10 = load i64, ptr %7, align 8, !tbaa !102
  %.not22 = icmp eq i64 %10, 0
  br i1 %.not22, label %16, label %11

11:                                               ; preds = %9
  %12 = getelementptr inbounds nuw i8, ptr %7, i64 8
  %13 = load ptr, ptr %12, align 8, !tbaa !104
  %14 = trunc i64 %10 to i32
  %15 = tail call i32 @pmix_bfrops_base_pack_info(ptr noundef %0, ptr noundef %1, ptr noundef %13, i32 noundef %14, i16 noundef zeroext 24) #8
  %.not23 = icmp eq i32 %15, 0
  br i1 %.not23, label %16, label %._crit_edge

16:                                               ; preds = %9, %11
  %indvars.iv.next = add nuw nsw i64 %indvars.iv, 1
  %exitcond.not = icmp eq i64 %indvars.iv.next, %wide.trip.count
  br i1 %exitcond.not, label %._crit_edge, label %.lr.ph, !llvm.loop !105

._crit_edge:                                      ; preds = %.lr.ph, %11, %16, %5
  %.018 = phi i32 [ 0, %5 ], [ 0, %16 ], [ %15, %11 ], [ %8, %.lr.ph ]
  ret i32 %.018
}